; Function Attrs: mustprogress nounwind uwtable
define hidden void @_ZN16SystemDictionary19add_nest_host_errorERK18constantPoolHandleiPKc(ptr noundef nonnull align 8 dereferenceable(16) %0, i32 noundef %1, ptr noundef %2) local_unnamed_addr #0 align 2 {
  %4 = load ptr, ptr @SystemDictionary_lock, align 8
  %.not.i.i = icmp eq ptr %4, null
  br i1 %.not.i.i, label %_ZN11MutexLockerC2EP6ThreadP5MutexNS2_18SafepointCheckFlagE.exit, label %5

5:                                                ; preds = %3
  %6 = tail call align 8 ptr @llvm.threadlocal.address.p0(ptr align 8 @_ZN6Thread12_thr_currentE)
  %7 = load ptr, ptr %6, align 8
  tail call void @_ZN5Mutex4lockEP6Thread(ptr noundef nonnull align 8 dereferenceable(104) %4, ptr noundef %7) #14
  br label %_ZN11MutexLockerC2EP6ThreadP5MutexNS2_18SafepointCheckFlagE.exit

_ZN11MutexLockerC2EP6ThreadP5MutexNS2_18SafepointCheckFlagE.exit: ; preds = %3, %5
  %8 = tail call noundef ptr @_ZN20ResolutionErrorTable10find_entryERK18constantPoolHandlei(ptr noundef nonnull align 8 dereferenceable(16) %0, i32 noundef %1) #14
  %.not = icmp eq ptr %8, null
  br i1 %.not, label %14, label %9

9:                                                ; preds = %_ZN11MutexLockerC2EP6ThreadP5MutexNS2_18SafepointCheckFlagE.exit
  %10 = getelementptr inbounds i8, ptr %8, i64 32
  %11 = load ptr, ptr %10, align 8
  %12 = icmp eq ptr %11, null
  br i1 %12, label %13, label %14

13:                                               ; preds = %9
  store ptr %2, ptr %10, align 8
  br label %15

14:                                               ; preds = %9, %_ZN11MutexLockerC2EP6ThreadP5MutexNS2_18SafepointCheckFlagE.exit
  tail call void @_ZN20ResolutionErrorTable9add_entryERK18constantPoolHandleiPKc(ptr noundef nonnull align 8 dereferenceable(16) %0, i32 noundef %1, ptr noundef %2) #14
  br label %15

15:                                               ; preds = %14, %13
  br i1 %.not.i.i, label %_ZN11MutexLockerD2Ev.exit, label %16

16:                                               ; preds = %15
  tail call void @_ZN5Mutex6unlockEv(ptr noundef nonnull align 8 dereferenceable(104) %4) #14
  br label %_ZN11MutexLockerD2Ev.exit

_ZN11MutexLockerD2Ev.exit:                        ; preds = %15, %16
  ret void
}